target datalayout = "e-m:e-p270:32:32-p271:32:32-p272:64:64-i64:64-i128:128-f80:128-n8:16:32:64-S128"
target triple = "x86_64-pc-linux-gnu"

%class.symbol = type { ptr }
%struct.builtin_name = type { i32, %class.symbol }
%class.vector.41 = type { ptr }

@.str = private unnamed_addr constant [5 x i8] c"Char\00", align 1
@.str.4 = private unnamed_addr constant [8 x i8] c"char.<=\00", align 1
@.str.12 = private unnamed_addr constant [12 x i8] c"char.to_int\00", align 1
@.str.14 = private unnamed_addr constant [11 x i8] c"char.to_bv\00", align 1
@.str.16 = private unnamed_addr constant [13 x i8] c"char.from_bv\00", align 1
@.str.17 = private unnamed_addr constant [14 x i8] c"char.is_digit\00", align 1

; Function Attrs: mustprogress uwtable
define linkonce_odr hidden noundef nonnull align 8 dereferenceable(8) ptr @_ZN6vectorI12builtin_nameLb0EjE9push_backEOS0_(ptr noundef nonnull align 8 dereferenceable(8) %0, ptr noundef nonnull align 8 dereferenceable(16) %1) #4 comdat align 2 {
  %3 = alloca ptr, align 8
  %4 = alloca ptr, align 8
  store ptr %0, ptr %3, align 8, !tbaa !125
  store ptr %1, ptr %4, align 8, !tbaa !127
  %5 = load ptr, ptr %3, align 8
  %6 = getelementptr inbounds nuw %class.vector.41, ptr %5, i32 0, i32 0
  %7 = load ptr, ptr %6, align 8, !tbaa !129
  %8 = icmp eq ptr %7, null
  br i1 %8, label %19, label %9

9:                                                ; preds = %2
  %10 = getelementptr inbounds nuw %class.vector.41, ptr %5, i32 0, i32 0
  %11 = load ptr, ptr %10, align 8, !tbaa !129
  %12 = getelementptr inbounds i32, ptr %11, i64 -1
  %13 = load i32, ptr %12, align 4, !tbaa !25
  %14 = getelementptr inbounds nuw %class.vector.41, ptr %5, i32 0, i32 0
  %15 = load ptr, ptr %14, align 8, !tbaa !129
  %16 = getelementptr inbounds i32, ptr %15, i64 -2
  %17 = load i32, ptr %16, align 4, !tbaa !25
  %18 = icmp eq i32 %13, %17
  br i1 %18, label %19, label %20

19:                                               ; preds = %9, %2
  call void @_ZN6vectorI12builtin_nameLb0EjE13expand_vectorEv(ptr noundef nonnull align 8 dereferenceable(8) %5)
  br label %20

20:                                               ; preds = %19, %9
  %21 = getelementptr inbounds nuw %class.vector.41, ptr %5, i32 0, i32 0
  %22 = load ptr, ptr %21, align 8, !tbaa !129
  %23 = getelementptr inbounds nuw %class.vector.41, ptr %5, i32 0, i32 0
  %24 = load ptr, ptr %23, align 8, !tbaa !129
  %25 = getelementptr inbounds i32, ptr %24, i64 -1
  %26 = load i32, ptr %25, align 4, !tbaa !25
  %27 = zext i32 %26 to i64
  %28 = getelementptr inbounds nuw %struct.builtin_name, ptr %22, i64 %27
  %29 = load ptr, ptr %4, align 8, !tbaa !127
  call void @llvm.memcpy.p0.p0.i64(ptr align 8 %28, ptr align 8 %29, i64 16, i1 false), !tbaa.struct !131
  %30 = getelementptr inbounds nuw %class.vector.41, ptr %5, i32 0, i32 0
  %31 = load ptr, ptr %30, align 8, !tbaa !129
  %32 = getelementptr inbounds i32, ptr %31, i64 -1
  %33 = load i32, ptr %32, align 4, !tbaa !25
  %34 = add i32 %33, 1
  store i32 %34, ptr %32, align 4, !tbaa !25
  ret ptr %5
}

; Function Attrs: mustprogress uwtable
define linkonce_odr hidden void @_ZN12builtin_nameC2EPKci(ptr noundef nonnull align 8 dereferenceable(16) %0, ptr noundef %1, i32 noundef %2) unnamed_addr #4 comdat align 2 {
  %4 = alloca ptr, align 8
  %5 = alloca ptr, align 8
  %6 = alloca i32, align 4
  store ptr %0, ptr %4, align 8, !tbaa !127
  store ptr %1, ptr %5, align 8, !tbaa !36
  store i32 %2, ptr %6, align 4, !tbaa !25
  %7 = load ptr, ptr %4, align 8
  %8 = getelementptr inbounds nuw %struct.builtin_name, ptr %7, i32 0, i32 0
  %9 = load i32, ptr %6, align 4, !tbaa !25
  store i32 %9, ptr %8, align 8, !tbaa !132
  %10 = getelementptr inbounds nuw %struct.builtin_name, ptr %7, i32 0, i32 1
  %11 = load ptr, ptr %5, align 8, !tbaa !36
  call void @_ZN6symbolC1EPKc(ptr noundef nonnull align 8 dereferenceable(8) %10, ptr noundef %11)
  ret void
}

; Function Attrs: mustprogress uwtable
define hidden void @_ZN16char_decl_plugin12get_op_namesER7svectorI12builtin_namejERK6symbol(ptr noundef nonnull align 8 dereferenceable(40) %0, ptr noundef nonnull align 8 dereferenceable(8) %1, ptr noundef nonnull align 8 dereferenceable(8) %2) unnamed_addr #4 align 2 {
  %4 = alloca ptr, align 8
  %5 = alloca ptr, align 8
  %6 = alloca ptr, align 8
  %7 = alloca %struct.builtin_name, align 8
  %8 = alloca %struct.builtin_name, align 8
  %9 = alloca %struct.builtin_name, align 8
  %10 = alloca %struct.builtin_name, align 8
  %11 = alloca %struct.builtin_name, align 8
  %12 = alloca %struct.builtin_name, align 8
  store ptr %0, ptr %4, align 8, !tbaa !3
  store ptr %1, ptr %5, align 8, !tbaa !123
  store ptr %2, ptr %6, align 8, !tbaa !41
  %13 = load ptr, ptr %5, align 8, !tbaa !123
  call void @llvm.lifetime.start.p0(i64 16, ptr %7) #3
  call void @_ZN12builtin_nameC2EPKci(ptr noundef nonnull align 8 dereferenceable(16) %7, ptr noundef @.str.4, i32 noundef 1)
  %14 = call noundef nonnull align 8 dereferenceable(8) ptr @_ZN6vectorI12builtin_nameLb0EjE9push_backEOS0_(ptr noundef nonnull align 8 dereferenceable(8) %13, ptr noundef nonnull align 8 dereferenceable(16) %7)
  call void @llvm.lifetime.end.p0(i64 16, ptr %7) #3
  %15 = load ptr, ptr %5, align 8, !tbaa !123
  call void @llvm.lifetime.start.p0(i64 16, ptr %8) #3
  call void @_ZN12builtin_nameC2EPKci(ptr noundef nonnull align 8 dereferenceable(16) %8, ptr noundef @.str, i32 noundef 0)
  %16 = call noundef nonnull align 8 dereferenceable(8) ptr @_ZN6vectorI12builtin_nameLb0EjE9push_backEOS0_(ptr noundef nonnull align 8 dereferenceable(8) %15, ptr noundef nonnull align 8 dereferenceable(16) %8)
  call void @llvm.lifetime.end.p0(i64 16, ptr %8) #3
  %17 = load ptr, ptr %5, align 8, !tbaa !123
  call void @llvm.lifetime.start.p0(i64 16, ptr %9) #3
  call void @_ZN12builtin_nameC2EPKci(ptr noundef nonnull align 8 dereferenceable(16) %9, ptr noundef @.str.12, i32 noundef 2)
  %18 = call noundef nonnull align 8 dereferenceable(8) ptr @_ZN6vectorI12builtin_nameLb0EjE9push_backEOS0_(ptr noundef nonnull align 8 dereferenceable(8) %17, ptr noundef nonnull align 8 dereferenceable(16) %9)
  call void @llvm.lifetime.end.p0(i64 16, ptr %9) #3
  %19 = load ptr, ptr %5, align 8, !tbaa !123
  call void @llvm.lifetime.start.p0(i64 16, ptr %10) #3
  call void @_ZN12builtin_nameC2EPKci(ptr noundef nonnull align 8 dereferenceable(16) %10, ptr noundef @.str.17, i32 noundef 5)
  %20 = call noundef nonnull align 8 dereferenceable(8) ptr @_ZN6vectorI12builtin_nameLb0EjE9push_backEOS0_(ptr noundef nonnull align 8 dereferenceable(8) %19, ptr noundef nonnull align 8 dereferenceable(16) %10)
  call void @llvm.lifetime.end.p0(i64 16, ptr %10) #3
  %21 = load ptr, ptr %5, align 8, !tbaa !123
  call void @llvm.lifetime.start.p0(i64 16, ptr %11) #3
  call void @_ZN12builtin_nameC2EPKci(ptr noundef nonnull align 8 dereferenceable(16) %11, ptr noundef @.str.14, i32 noundef 3)
  %22 = call noundef nonnull align 8 dereferenceable(8) ptr @_ZN6vectorI12builtin_nameLb0EjE9push_backEOS0_(ptr noundef nonnull align 8 dereferenceable(8) %21, ptr noundef nonnull align 8 dereferenceable(16) %11)
  call void @llvm.lifetime.end.p0(i64 16, ptr %11) #3
  %23 = load ptr, ptr %5, align 8, !tbaa !123
  call void @llvm.lifetime.start.p0(i64 16, ptr %12) #3
  call void @_ZN12builtin_nameC2EPKci(ptr noundef nonnull align 8 dereferenceable(16) %12, ptr noundef @.str.16, i32 noundef 4)
  %24 = call noundef nonnull align 8 dereferenceable(8) ptr @_ZN6vectorI12builtin_nameLb0EjE9push_backEOS0_(ptr noundef nonnull align 8 dereferenceable(8) %23, ptr noundef nonnull align 8 dereferenceable(16) %12)
  call void @llvm.lifetime.end.p0(i64 16, ptr %12) #3
  ret void
}