; Function Attrs: mustprogress uwtable
define hidden void @_ZN16char_decl_plugin12get_op_namesER7svectorI12builtin_namejERK6symbol(ptr nonnull readnone align 8 captures(none) %0, ptr noundef nonnull align 8 dereferenceable(8) %1, ptr nonnull readnone align 8 captures(none) %2) unnamed_addr #3 align 2 {
  %4 = alloca %struct.builtin_name, align 8
  %5 = alloca %struct.builtin_name, align 8
  %6 = alloca %struct.builtin_name, align 8
  %7 = alloca %struct.builtin_name, align 8
  %8 = alloca %struct.builtin_name, align 8
  %9 = alloca %struct.builtin_name, align 8
  call void @llvm.lifetime.start.p0(i64 16, ptr nonnull %4) #20
  store i32 1, ptr %4, align 8, !tbaa !115
  %10 = getelementptr inbounds nuw i8, ptr %4, i64 8
  call void @_ZN6symbolC1EPKc(ptr noundef nonnull align 8 dereferenceable(8) %10, ptr noundef nonnull @.str.4)
  %11 = load ptr, ptr %1, align 8, !tbaa !117
  %12 = icmp eq ptr %11, null
  br i1 %12, label %19, label %13

13:                                               ; preds = %3
  %14 = getelementptr inbounds i8, ptr %11, i64 -4
  %15 = load i32, ptr %14, align 4, !tbaa !90
  %16 = getelementptr inbounds i8, ptr %11, i64 -8
  %17 = load i32, ptr %16, align 4, !tbaa !90
  %18 = icmp eq i32 %15, %17
  br i1 %18, label %19, label %_ZN6vectorI12builtin_nameLb0EjE9push_backEOS0_.exit

19:                                               ; preds = %13, %3
  call void @_ZN6vectorI12builtin_nameLb0EjE13expand_vectorEv(ptr noundef nonnull align 8 dereferenceable(8) %1)
  %.pre.i = load ptr, ptr %1, align 8, !tbaa !117
  %.phi.trans.insert.i = getelementptr inbounds i8, ptr %.pre.i, i64 -4
  %.pre2.i = load i32, ptr %.phi.trans.insert.i, align 4, !tbaa !90
  br label %_ZN6vectorI12builtin_nameLb0EjE9push_backEOS0_.exit

_ZN6vectorI12builtin_nameLb0EjE9push_backEOS0_.exit: ; preds = %13, %19
  %20 = phi i32 [ %.pre2.i, %19 ], [ %15, %13 ]
  %21 = phi ptr [ %.pre.i, %19 ], [ %11, %13 ]
  %22 = zext i32 %20 to i64
  %23 = getelementptr inbounds nuw %struct.builtin_name, ptr %21, i64 %22
  call void @llvm.memcpy.p0.p0.i64(ptr noundef nonnull align 8 dereferenceable(16) %23, ptr noundef nonnull align 8 dereferenceable(16) %4, i64 16, i1 false), !tbaa.struct !120
  %24 = load ptr, ptr %1, align 8, !tbaa !117
  %25 = getelementptr inbounds i8, ptr %24, i64 -4
  %26 = load i32, ptr %25, align 4, !tbaa !90
  %27 = add i32 %26, 1
  store i32 %27, ptr %25, align 4, !tbaa !90
  call void @llvm.lifetime.end.p0(i64 16, ptr nonnull %4) #20
  call void @llvm.lifetime.start.p0(i64 16, ptr nonnull %5) #20
  store i32 0, ptr %5, align 8, !tbaa !115
  %28 = getelementptr inbounds nuw i8, ptr %5, i64 8
  call void @_ZN6symbolC1EPKc(ptr noundef nonnull align 8 dereferenceable(8) %28, ptr noundef nonnull @.str)
  %29 = load ptr, ptr %1, align 8, !tbaa !117
  %30 = icmp eq ptr %29, null
  br i1 %30, label %37, label %31

31:                                               ; preds = %_ZN6vectorI12builtin_nameLb0EjE9push_backEOS0_.exit
  %32 = getelementptr inbounds i8, ptr %29, i64 -4
  %33 = load i32, ptr %32, align 4, !tbaa !90
  %34 = getelementptr inbounds i8, ptr %29, i64 -8
  %35 = load i32, ptr %34, align 4, !tbaa !90
  %36 = icmp eq i32 %33, %35
  br i1 %36, label %37, label %_ZN6vectorI12builtin_nameLb0EjE9push_backEOS0_.exit9

37:                                               ; preds = %31, %_ZN6vectorI12builtin_nameLb0EjE9push_backEOS0_.exit
  call void @_ZN6vectorI12builtin_nameLb0EjE13expand_vectorEv(ptr noundef nonnull align 8 dereferenceable(8) %1)
  %.pre.i6 = load ptr, ptr %1, align 8, !tbaa !117
  %.phi.trans.insert.i7 = getelementptr inbounds i8, ptr %.pre.i6, i64 -4
  %.pre2.i8 = load i32, ptr %.phi.trans.insert.i7, align 4, !tbaa !90
  br label %_ZN6vectorI12builtin_nameLb0EjE9push_backEOS0_.exit9

_ZN6vectorI12builtin_nameLb0EjE9push_backEOS0_.exit9: ; preds = %31, %37
  %38 = phi i32 [ %.pre2.i8, %37 ], [ %33, %31 ]
  %39 = phi ptr [ %.pre.i6, %37 ], [ %29, %31 ]
  %40 = zext i32 %38 to i64
  %41 = getelementptr inbounds nuw %struct.builtin_name, ptr %39, i64 %40
  call void @llvm.memcpy.p0.p0.i64(ptr noundef nonnull align 8 dereferenceable(16) %41, ptr noundef nonnull align 8 dereferenceable(16) %5, i64 16, i1 false), !tbaa.struct !120
  %42 = load ptr, ptr %1, align 8, !tbaa !117
  %43 = getelementptr inbounds i8, ptr %42, i64 -4
  %44 = load i32, ptr %43, align 4, !tbaa !90
  %45 = add i32 %44, 1
  store i32 %45, ptr %43, align 4, !tbaa !90
  call void @llvm.lifetime.end.p0(i64 16, ptr nonnull %5) #20
  call void @llvm.lifetime.start.p0(i64 16, ptr nonnull %6) #20
  store i32 2, ptr %6, align 8, !tbaa !115
  %46 = getelementptr inbounds nuw i8, ptr %6, i64 8
  call void @_ZN6symbolC1EPKc(ptr noundef nonnull align 8 dereferenceable(8) %46, ptr noundef nonnull @.str.12)
  %47 = load ptr, ptr %1, align 8, !tbaa !117
  %48 = icmp eq ptr %47, null
  br i1 %48, label %55, label %49

49:                                               ; preds = %_ZN6vectorI12builtin_nameLb0EjE9push_backEOS0_.exit9
  %50 = getelementptr inbounds i8, ptr %47, i64 -4
  %51 = load i32, ptr %50, align 4, !tbaa !90
  %52 = getelementptr inbounds i8, ptr %47, i64 -8
  %53 = load i32, ptr %52, align 4, !tbaa !90
  %54 = icmp eq i32 %51, %53
  br i1 %54, label %55, label %_ZN6vectorI12builtin_nameLb0EjE9push_backEOS0_.exit13

55:                                               ; preds = %49, %_ZN6vectorI12builtin_nameLb0EjE9push_backEOS0_.exit9
  call void @_ZN6vectorI12builtin_nameLb0EjE13expand_vectorEv(ptr noundef nonnull align 8 dereferenceable(8) %1)
  %.pre.i10 = load ptr, ptr %1, align 8, !tbaa !117
  %.phi.trans.insert.i11 = getelementptr inbounds i8, ptr %.pre.i10, i64 -4
  %.pre2.i12 = load i32, ptr %.phi.trans.insert.i11, align 4, !tbaa !90
  br label %_ZN6vectorI12builtin_nameLb0EjE9push_backEOS0_.exit13

_ZN6vectorI12builtin_nameLb0EjE9push_backEOS0_.exit13: ; preds = %49, %55
  %56 = phi i32 [ %.pre2.i12, %55 ], [ %51, %49 ]
  %57 = phi ptr [ %.pre.i10, %55 ], [ %47, %49 ]
  %58 = zext i32 %56 to i64
  %59 = getelementptr inbounds nuw %struct.builtin_name, ptr %57, i64 %58
  call void @llvm.memcpy.p0.p0.i64(ptr noundef nonnull align 8 dereferenceable(16) %59, ptr noundef nonnull align 8 dereferenceable(16) %6, i64 16, i1 false), !tbaa.struct !120
  %60 = load ptr, ptr %1, align 8, !tbaa !117
  %61 = getelementptr inbounds i8, ptr %60, i64 -4
  %62 = load i32, ptr %61, align 4, !tbaa !90
  %63 = add i32 %62, 1
  store i32 %63, ptr %61, align 4, !tbaa !90
  call void @llvm.lifetime.end.p0(i64 16, ptr nonnull %6) #20
  call void @llvm.lifetime.start.p0(i64 16, ptr nonnull %7) #20
  store i32 5, ptr %7, align 8, !tbaa !115
  %64 = getelementptr inbounds nuw i8, ptr %7, i64 8
  call void @_ZN6symbolC1EPKc(ptr noundef nonnull align 8 dereferenceable(8) %64, ptr noundef nonnull @.str.17)
  %65 = load ptr, ptr %1, align 8, !tbaa !117
  %66 = icmp eq ptr %65, null
  br i1 %66, label %73, label %67

67:                                               ; preds = %_ZN6vectorI12builtin_nameLb0EjE9push_backEOS0_.exit13
  %68 = getelementptr inbounds i8, ptr %65, i64 -4
  %69 = load i32, ptr %68, align 4, !tbaa !90
  %70 = getelementptr inbounds i8, ptr %65, i64 -8
  %71 = load i32, ptr %70, align 4, !tbaa !90
  %72 = icmp eq i32 %69, %71
  br i1 %72, label %73, label %_ZN6vectorI12builtin_nameLb0EjE9push_backEOS0_.exit17

73:                                               ; preds = %67, %_ZN6vectorI12builtin_nameLb0EjE9push_backEOS0_.exit13
  call void @_ZN6vectorI12builtin_nameLb0EjE13expand_vectorEv(ptr noundef nonnull align 8 dereferenceable(8) %1)
  %.pre.i14 = load ptr, ptr %1, align 8, !tbaa !117
  %.phi.trans.insert.i15 = getelementptr inbounds i8, ptr %.pre.i14, i64 -4
  %.pre2.i16 = load i32, ptr %.phi.trans.insert.i15, align 4, !tbaa !90
  br label %_ZN6vectorI12builtin_nameLb0EjE9push_backEOS0_.exit17

_ZN6vectorI12builtin_nameLb0EjE9push_backEOS0_.exit17: ; preds = %67, %73
  %74 = phi i32 [ %.pre2.i16, %73 ], [ %69, %67 ]
  %75 = phi ptr [ %.pre.i14, %73 ], [ %65, %67 ]
  %76 = zext i32 %74 to i64
  %77 = getelementptr inbounds nuw %struct.builtin_name, ptr %75, i64 %76
  call void @llvm.memcpy.p0.p0.i64(ptr noundef nonnull align 8 dereferenceable(16) %77, ptr noundef nonnull align 8 dereferenceable(16) %7, i64 16, i1 false), !tbaa.struct !120
  %78 = load ptr, ptr %1, align 8, !tbaa !117
  %79 = getelementptr inbounds i8, ptr %78, i64 -4
  %80 = load i32, ptr %79, align 4, !tbaa !90
  %81 = add i32 %80, 1
  store i32 %81, ptr %79, align 4, !tbaa !90
  call void @llvm.lifetime.end.p0(i64 16, ptr nonnull %7) #20
  call void @llvm.lifetime.start.p0(i64 16, ptr nonnull %8) #20
  store i32 3, ptr %8, align 8, !tbaa !115
  %82 = getelementptr inbounds nuw i8, ptr %8, i64 8
  call void @_ZN6symbolC1EPKc(ptr noundef nonnull align 8 dereferenceable(8) %82, ptr noundef nonnull @.str.14)
  %83 = load ptr, ptr %1, align 8, !tbaa !117
  %84 = icmp eq ptr %83, null
  br i1 %84, label %91, label %85

85:                                               ; preds = %_ZN6vectorI12builtin_nameLb0EjE9push_backEOS0_.exit17
  %86 = getelementptr inbounds i8, ptr %83, i64 -4
  %87 = load i32, ptr %86, align 4, !tbaa !90
  %88 = getelementptr inbounds i8, ptr %83, i64 -8
  %89 = load i32, ptr %88, align 4, !tbaa !90
  %90 = icmp eq i32 %87, %89
  br i1 %90, label %91, label %_ZN6vectorI12builtin_nameLb0EjE9push_backEOS0_.exit21

91:                                               ; preds = %85, %_ZN6vectorI12builtin_nameLb0EjE9push_backEOS0_.exit17
  call void @_ZN6vectorI12builtin_nameLb0EjE13expand_vectorEv(ptr noundef nonnull align 8 dereferenceable(8) %1)
  %.pre.i18 = load ptr, ptr %1, align 8, !tbaa !117
  %.phi.trans.insert.i19 = getelementptr inbounds i8, ptr %.pre.i18, i64 -4
  %.pre2.i20 = load i32, ptr %.phi.trans.insert.i19, align 4, !tbaa !90
  br label %_ZN6vectorI12builtin_nameLb0EjE9push_backEOS0_.exit21

_ZN6vectorI12builtin_nameLb0EjE9push_backEOS0_.exit21: ; preds = %85, %91
  %92 = phi i32 [ %.pre2.i20, %91 ], [ %87, %85 ]
  %93 = phi ptr [ %.pre.i18, %91 ], [ %83, %85 ]
  %94 = zext i32 %92 to i64
  %95 = getelementptr inbounds nuw %struct.builtin_name, ptr %93, i64 %94
  call void @llvm.memcpy.p0.p0.i64(ptr noundef nonnull align 8 dereferenceable(16) %95, ptr noundef nonnull align 8 dereferenceable(16) %8, i64 16, i1 false), !tbaa.struct !120
  %96 = load ptr, ptr %1, align 8, !tbaa !117
  %97 = getelementptr inbounds i8, ptr %96, i64 -4
  %98 = load i32, ptr %97, align 4, !tbaa !90
  %99 = add i32 %98, 1
  store i32 %99, ptr %97, align 4, !tbaa !90
  call void @llvm.lifetime.end.p0(i64 16, ptr nonnull %8) #20
  call void @llvm.lifetime.start.p0(i64 16, ptr nonnull %9) #20
  store i32 4, ptr %9, align 8, !tbaa !115
  %100 = getelementptr inbounds nuw i8, ptr %9, i64 8
  call void @_ZN6symbolC1EPKc(ptr noundef nonnull align 8 dereferenceable(8) %100, ptr noundef nonnull @.str.16)
  %101 = load ptr, ptr %1, align 8, !tbaa !117
  %102 = icmp eq ptr %101, null
  br i1 %102, label %109, label %103

103:                                              ; preds = %_ZN6vectorI12builtin_nameLb0EjE9push_backEOS0_.exit21
  %104 = getelementptr inbounds i8, ptr %101, i64 -4
  %105 = load i32, ptr %104, align 4, !tbaa !90
  %106 = getelementptr inbounds i8, ptr %101, i64 -8
  %107 = load i32, ptr %106, align 4, !tbaa !90
  %108 = icmp eq i32 %105, %107
  br i1 %108, label %109, label %_ZN6vectorI12builtin_nameLb0EjE9push_backEOS0_.exit25

109:                                              ; preds = %103, %_ZN6vectorI12builtin_nameLb0EjE9push_backEOS0_.exit21
  call void @_ZN6vectorI12builtin_nameLb0EjE13expand_vectorEv(ptr noundef nonnull align 8 dereferenceable(8) %1)
  %.pre.i22 = load ptr, ptr %1, align 8, !tbaa !117
  %.phi.trans.insert.i23 = getelementptr inbounds i8, ptr %.pre.i22, i64 -4
  %.pre2.i24 = load i32, ptr %.phi.trans.insert.i23, align 4, !tbaa !90
  br label %_ZN6vectorI12builtin_nameLb0EjE9push_backEOS0_.exit25

_ZN6vectorI12builtin_nameLb0EjE9push_backEOS0_.exit25: ; preds = %103, %109
  %110 = phi i32 [ %.pre2.i24, %109 ], [ %105, %103 ]
  %111 = phi ptr [ %.pre.i22, %109 ], [ %101, %103 ]
  %112 = zext i32 %110 to i64
  %113 = getelementptr inbounds nuw %struct.builtin_name, ptr %111, i64 %112
  call void @llvm.memcpy.p0.p0.i64(ptr noundef nonnull align 8 dereferenceable(16) %113, ptr noundef nonnull align 8 dereferenceable(16) %9, i64 16, i1 false), !tbaa.struct !120
  %114 = load ptr, ptr %1, align 8, !tbaa !117
  %115 = getelementptr inbounds i8, ptr %114, i64 -4
  %116 = load i32, ptr %115, align 4, !tbaa !90
  %117 = add i32 %116, 1
  store i32 %117, ptr %115, align 4, !tbaa !90
  call void @llvm.lifetime.end.p0(i64 16, ptr nonnull %9) #20
  ret void
}